(dp1
S'<d>:poss'
p2
I0
sS'<d>:quantmod'
p3
I1
sS'<d>:iobj'
p4
I2
sS'<d>:csubj'
p5
I3
sS'<d>:advcl'
p6
I4
sS'<d>:aux'
p7
I42
sS'<d>:<root>'
p8
I5
sS'<d>:number'
p9
I6
sS'<d>:ccomp'
p10
I7
sS'<d>:parataxis'
p11
I8
sS'<d>:rcmod'
p12
I9
sS'<d>:cc'
p13
I10
sS'<d>:neg'
p14
I11
sS'<d>:prep'
p15
I12
sS'<d>:prt'
p16
I13
sS'<d>:num'
p17
I14
sS'<d>:punct'
p18
I16
sS'<d>:tmod'
p19
I29
sS'<d>:nn'
p20
I18
sS'<d>:amod'
p21
I19
sS'<d>:cop'
p22
I20
sS'<d>:advmod'
p23
I21
sS'<d>:det'
p24
I22
sS'<d>:dep'
p25
I23
sS'<d>:<null>'
p26
I24
sS'<d>:root'
p27
I25
sS'<d>:mwe'
p28
I26
sS'<d>:<unk>'
p29
I27
sS'<d>:pcomp'
p30
I28
sS'<d>:predet'
p31
I17
sS'<d>:infmod'
p32
I30
sS'<d>:expl'
p33
I31
sS'<d>:auxpass'
p34
I32
sS'<d>:mark'
p35
I33
sS'<d>:xcomp'
p36
I34
sS'<d>:nsubjpass'
p37
I35
sS'<d>:possessive'
p38
I37
sS'<d>:preconj'
p39
I38
sS'<d>:discourse'
p40
I15
sS'<d>:acomp'
p41
I40
sS'<d>:npadvmod'
p42
I41
sS'<d>:dobj'
p43
I36
sS'<d>:pobj'
p44
I43
sS'<d>:conj'
p45
I39
sS'<d>:appos'
p46
I44
sS'<d>:csubjpass'
p47
I45
sS'<d>:partmod'
p48
I46
sS'<d>:nsubj'
p49
I47
s.